target datalayout = "e-m:e-p270:32:32-p271:32:32-p272:64:64-i64:64-i128:128-f80:128-n8:16:32:64-S128"
target triple = "x86_64-pc-linux-gnu"

%struct.AVFormatContext = type { ptr, ptr, ptr, ptr, ptr, i32, i32, ptr, i32, ptr, i32, ptr, ptr, i64, i64, i64, i32, i32, i32, i64, i64, ptr, i32, i32, ptr, i32, i32, i32, i32, ptr, i64, i32, i32, %struct.AVIOInterruptCB, i32, i32, i32, i32, i64, i32, i32, i32, i32, i32, i32, i32, i32, i32, i32, i32, i32, i64, i32, i32, i32, i32, i32, ptr, ptr, ptr, ptr, i32, ptr, ptr, ptr, ptr, i32, ptr, ptr, i64, ptr, ptr, ptr, i64 }
%struct.AVIOInterruptCB = type { ptr, ptr }
%struct.FFFormatContext = type { %struct.AVFormatContext, i32, %struct.PacketList, i64, ptr, ptr, i32, ptr, i32 }
%struct.PacketList = type { ptr, ptr }
%struct.AVPacket = type { ptr, i64, i64, ptr, i32, i32, i32, ptr, i32, i64, i64, ptr, ptr, %struct.AVRational }
%struct.AVRational = type { i32, i32 }
%struct.PacketListEntry = type { ptr, %struct.AVPacket }

; Function Attrs: alwaysinline nounwind uwtable
define internal ptr @ffformatcontext(ptr noundef %0) #4 {
  %2 = alloca ptr, align 8
  store ptr %0, ptr %2, align 8, !tbaa !14
  %3 = load ptr, ptr %2, align 8, !tbaa !14
  ret ptr %3
}

; Function Attrs: nounwind uwtable
define ptr @ff_interleaved_peek(ptr noundef %0, i32 noundef %1) #0 {
  %3 = alloca ptr, align 8
  %4 = alloca ptr, align 8
  %5 = alloca i32, align 4
  %6 = alloca ptr, align 8
  %7 = alloca ptr, align 8
  %8 = alloca i32, align 4
  store ptr %0, ptr %4, align 8, !tbaa !14
  store i32 %1, ptr %5, align 4, !tbaa !16
  call void @llvm.lifetime.start.p0(i64 8, ptr %6) #11
  %9 = load ptr, ptr %4, align 8, !tbaa !14
  %10 = call ptr @ffformatcontext(ptr noundef %9)
  store ptr %10, ptr %6, align 8, !tbaa !112
  call void @llvm.lifetime.start.p0(i64 8, ptr %7) #11
  %11 = load ptr, ptr %6, align 8, !tbaa !112
  %12 = getelementptr inbounds nuw %struct.FFFormatContext, ptr %11, i32 0, i32 2
  %13 = getelementptr inbounds nuw %struct.PacketList, ptr %12, i32 0, i32 0
  %14 = load ptr, ptr %13, align 8, !tbaa !152
  store ptr %14, ptr %7, align 8, !tbaa !133
  br label %15

15:                                               ; preds = %28, %2
  %16 = load ptr, ptr %7, align 8, !tbaa !133
  %17 = icmp ne ptr %16, null
  br i1 %17, label %18, label %32

18:                                               ; preds = %15
  %19 = load ptr, ptr %7, align 8, !tbaa !133
  %20 = getelementptr inbounds nuw %struct.PacketListEntry, ptr %19, i32 0, i32 1
  %21 = getelementptr inbounds nuw %struct.AVPacket, ptr %20, i32 0, i32 5
  %22 = load i32, ptr %21, align 4, !tbaa !155
  %23 = load i32, ptr %5, align 4, !tbaa !16
  %24 = icmp eq i32 %22, %23
  br i1 %24, label %25, label %28

25:                                               ; preds = %18
  %26 = load ptr, ptr %7, align 8, !tbaa !133
  %27 = getelementptr inbounds nuw %struct.PacketListEntry, ptr %26, i32 0, i32 1
  store ptr %27, ptr %3, align 8
  store i32 1, ptr %8, align 4
  br label %33

28:                                               ; preds = %18
  %29 = load ptr, ptr %7, align 8, !tbaa !133
  %30 = getelementptr inbounds nuw %struct.PacketListEntry, ptr %29, i32 0, i32 0
  %31 = load ptr, ptr %30, align 8, !tbaa !149
  store ptr %31, ptr %7, align 8, !tbaa !133
  br label %15, !llvm.loop !161

32:                                               ; preds = %15
  store ptr null, ptr %3, align 8
  store i32 1, ptr %8, align 4
  br label %33

33:                                               ; preds = %32, %25
  call void @llvm.lifetime.end.p0(i64 8, ptr %7) #11
  call void @llvm.lifetime.end.p0(i64 8, ptr %6) #11
  %34 = load ptr, ptr %3, align 8
  ret ptr %34
}