; Function Attrs: nofree norecurse nosync nounwind memory(read, inaccessiblemem: none) uwtable
define ptr @ff_interleaved_peek(ptr noundef readonly captures(none) %0, i32 noundef %1) local_unnamed_addr #6 {
  %3 = getelementptr inbounds nuw i8, ptr %0, i64 480
  br label %4

4:                                                ; preds = %5, %2
  %.0.in = phi ptr [ %3, %2 ], [ %.0, %5 ]
  %.0 = load ptr, ptr %.0.in, align 8, !tbaa !125
  %.not = icmp eq ptr %.0, null
  br i1 %.not, label %.loopexit, label %5

5:                                                ; preds = %4
  %6 = getelementptr inbounds nuw i8, ptr %.0, i64 44
  %7 = load i32, ptr %6, align 4, !tbaa !136
  %8 = icmp eq i32 %7, %1
  br i1 %8, label %9, label %4, !llvm.loop !141

9:                                                ; preds = %5
  %10 = getelementptr inbounds nuw i8, ptr %.0, i64 8
  br label %.loopexit

.loopexit:                                        ; preds = %4, %9
  %.07 = phi ptr [ %10, %9 ], [ null, %4 ]
  ret ptr %.07
}